target datalayout = "e-m:e-p270:32:32-p271:32:32-p272:64:64-i64:64-i128:128-f80:128-n8:16:32:64-S128"
target triple = "x86_64-pc-linux-gnu"

%struct.H5C_class_t = type { i32, ptr, i32, i32, ptr, ptr, ptr, ptr, ptr, ptr, ptr, ptr, ptr, ptr }
%struct.H5EA_dblock_t = type { %struct.H5C_cache_entry_t, i64, ptr, ptr, i64, i64, i8, ptr, ptr, i64, i64 }
%struct.H5C_cache_entry_t = type { ptr, i64, i64, ptr, i8, ptr, i8, i8, i8, i8, i32, i8, i8, i8, i8, i8, i32, ptr, i32, i32, i32, i32, i32, i8, i8, ptr, ptr, ptr, ptr, ptr, ptr, i8, i32, i8, i64, ptr, i64, i64, i32, i8, i32, i32, i8, ptr, ptr, ptr }
%struct.H5EA_hdr_t = type { %struct.H5C_cache_entry_t, %struct.H5EA_create_t, i64, %struct.H5EA_stat_t, %struct.anon.1, i64, i64, i64, ptr, i64, i8, i64, i64, i8, i64, ptr, i64, ptr, i8, ptr, ptr }
%struct.H5EA_create_t = type { ptr, i8, i8, i8, i8, i8, i8 }
%struct.H5EA_stat_t = type { %struct.anon, %struct.anon.0 }
%struct.anon = type { i64, i64, i64 }
%struct.anon.0 = type { i64, i64, i64, i64, i64, i64 }
%struct.anon.1 = type { i64, ptr }

@H5EA_init_g = external global i8, align 1
@H5_libterm_g = external global i8, align 1
@.str = private unnamed_addr constant [104 x i8] c"generated/home/dtcxzyw/WorkSpace/Projects/compilers/llvm-opt-benchmark/bench/hdf5/hdf5/src/H5EAdblock.c\00", align 1
@H5E_EARRAY_g = external global i64, align 8
@H5AC_EARRAY_DBLOCK = external constant [1 x %struct.H5C_class_t], align 16
@.str.10 = private unnamed_addr constant [46 x i8] c"unable to release extensible array data block\00", align 1
@H5E_CANTPROTECT_g = external global i64, align 8
@.str.11 = private unnamed_addr constant [62 x i8] c"unable to protect extensible array data block, address = %llu\00", align 1
@H5E_CANTUNPROTECT_g = external global i64, align 8
@.str.12 = private unnamed_addr constant [64 x i8] c"unable to unprotect extensible array data block, address = %llu\00", align 1
@__func__.H5EA__dblock_unprotect = private unnamed_addr constant [23 x i8] c"H5EA__dblock_unprotect\00", align 1
@__func__.H5EA__dblock_delete = private unnamed_addr constant [20 x i8] c"H5EA__dblock_delete\00", align 1
@H5AC_EARRAY_DBLK_PAGE = external constant [1 x %struct.H5C_class_t], align 16
@H5E_CANTEXPUNGE_g = external global i64, align 8
@.str.13 = private unnamed_addr constant [59 x i8] c"unable to remove array data block page from metadata cache\00", align 1

; Function Attrs: nounwind uwtable
define i32 @H5EA__dblock_unprotect(ptr noundef %0, i32 noundef %1) #0 {
  %3 = alloca ptr, align 8
  %4 = alloca i32, align 4
  %5 = alloca i32, align 4
  %6 = alloca i8, align 1
  store ptr %0, ptr %3, align 8, !tbaa !11
  store i32 %1, ptr %4, align 4, !tbaa !43
  call void @llvm.lifetime.start.p0(i64 4, ptr %5) #5
  store i32 0, ptr %5, align 4, !tbaa !43
  call void @llvm.lifetime.start.p0(i64 1, ptr %6) #5
  store i8 0, ptr %6, align 1, !tbaa !13
  %7 = load i8, ptr @H5EA_init_g, align 1, !tbaa !13, !range !15, !noundef !16
  %8 = trunc i8 %7 to i1
  br i1 %8, label %13, label %9

9:                                                ; preds = %2
  %10 = load i8, ptr @H5_libterm_g, align 1, !tbaa !13, !range !15, !noundef !16
  %11 = trunc i8 %10 to i1
  %12 = xor i1 %11, true
  br label %13

13:                                               ; preds = %9, %2
  %14 = phi i1 [ true, %2 ], [ %12, %9 ]
  %15 = xor i1 %14, true
  %16 = xor i1 %15, true
  %17 = zext i1 %16 to i32
  %18 = sext i32 %17 to i64
  %19 = call i64 @llvm.expect.i64(i64 %18, i64 1)
  %20 = icmp ne i64 %19, 0
  br i1 %20, label %21, label %58

21:                                               ; preds = %13
  %22 = load ptr, ptr %3, align 8, !tbaa !11
  %23 = getelementptr inbounds nuw %struct.H5EA_dblock_t, ptr %22, i32 0, i32 3
  %24 = load ptr, ptr %23, align 8, !tbaa !17
  %25 = getelementptr inbounds nuw %struct.H5EA_hdr_t, ptr %24, i32 0, i32 8
  %26 = load ptr, ptr %25, align 8, !tbaa !51
  %27 = load ptr, ptr %3, align 8, !tbaa !11
  %28 = getelementptr inbounds nuw %struct.H5EA_dblock_t, ptr %27, i32 0, i32 4
  %29 = load i64, ptr %28, align 8, !tbaa !52
  %30 = load ptr, ptr %3, align 8, !tbaa !11
  %31 = load i32, ptr %4, align 4, !tbaa !43
  %32 = call i32 @H5AC_unprotect(ptr noundef %26, ptr noundef @H5AC_EARRAY_DBLOCK, i64 noundef %29, ptr noundef %30, i32 noundef %31)
  %33 = icmp slt i32 %32, 0
  br i1 %33, label %34, label %56

34:                                               ; preds = %21
  br label %35

35:                                               ; preds = %34
  br label %36

36:                                               ; preds = %35
  br label %37

37:                                               ; preds = %36
  %38 = load i64, ptr @H5E_EARRAY_g, align 8, !tbaa !9
  %39 = load i64, ptr @H5E_CANTUNPROTECT_g, align 8, !tbaa !9
  %40 = load ptr, ptr %3, align 8, !tbaa !11
  %41 = getelementptr inbounds nuw %struct.H5EA_dblock_t, ptr %40, i32 0, i32 4
  %42 = load i64, ptr %41, align 8, !tbaa !52
  %43 = call i32 (ptr, ptr, i32, i64, i64, ptr, ...) @H5E_printf_stack(ptr noundef @.str, ptr noundef @__func__.H5EA__dblock_unprotect, i32 noundef 352, i64 noundef %38, i64 noundef %39, ptr noundef @.str.12, i64 noundef %42)
  br label %44

44:                                               ; preds = %37
  br label %45

45:                                               ; preds = %44
  store i8 1, ptr %6, align 1, !tbaa !13
  %46 = load i8, ptr %6, align 1, !tbaa !13, !range !15, !noundef !16
  %47 = trunc i8 %46 to i1
  %48 = zext i1 %47 to i8
  store i8 %48, ptr %6, align 1, !tbaa !13
  br label %49

49:                                               ; preds = %45
  br label %50

50:                                               ; preds = %49
  br label %51

51:                                               ; preds = %50
  store i32 -1, ptr %5, align 4, !tbaa !43
  br label %57

52:                                               ; No predecessors!
  br label %53

53:                                               ; preds = %52
  br label %54

54:                                               ; preds = %53
  br label %55

55:                                               ; preds = %54
  br label %56

56:                                               ; preds = %55, %21
  br label %57

57:                                               ; preds = %56, %51
  br label %58

58:                                               ; preds = %57, %13
  %59 = load i32, ptr %5, align 4, !tbaa !43
  call void @llvm.lifetime.end.p0(i64 1, ptr %6) #5
  call void @llvm.lifetime.end.p0(i64 4, ptr %5) #5
  ret i32 %59
}

; Function Attrs: nounwind uwtable
define i32 @H5EA__dblock_delete(ptr noundef %0, ptr noundef %1, i64 noundef %2, i64 noundef %3) #0 {
  %5 = alloca i32, align 4
  %6 = alloca ptr, align 8
  %7 = alloca ptr, align 8
  %8 = alloca i64, align 8
  %9 = alloca i64, align 8
  %10 = alloca ptr, align 8
  %11 = alloca i32, align 4
  %12 = alloca i8, align 1
  %13 = alloca i64, align 8
  %14 = alloca i64, align 8
  %15 = alloca i64, align 8
  %16 = alloca i64, align 8
  %17 = alloca i32, align 4
  store ptr %0, ptr %6, align 8, !tbaa !3
  store ptr %1, ptr %7, align 8, !tbaa !8
  store i64 %2, ptr %8, align 8, !tbaa !9
  store i64 %3, ptr %9, align 8, !tbaa !9
  call void @llvm.lifetime.start.p0(i64 8, ptr %10) #5
  store ptr null, ptr %10, align 8, !tbaa !11
  call void @llvm.lifetime.start.p0(i64 4, ptr %11) #5
  store i32 0, ptr %11, align 4, !tbaa !43
  call void @llvm.lifetime.start.p0(i64 1, ptr %12) #5
  store i8 0, ptr %12, align 1, !tbaa !13
  %18 = load i8, ptr @H5EA_init_g, align 1, !tbaa !13, !range !15, !noundef !16
  %19 = trunc i8 %18 to i1
  br i1 %19, label %24, label %20

20:                                               ; preds = %4
  %21 = load i8, ptr @H5_libterm_g, align 1, !tbaa !13, !range !15, !noundef !16
  %22 = trunc i8 %21 to i1
  %23 = xor i1 %22, true
  br label %24

24:                                               ; preds = %20, %4
  %25 = phi i1 [ true, %4 ], [ %23, %20 ]
  %26 = xor i1 %25, true
  %27 = xor i1 %26, true
  %28 = zext i1 %27 to i32
  %29 = sext i32 %28 to i64
  %30 = call i64 @llvm.expect.i64(i64 %29, i64 1)
  %31 = icmp ne i64 %30, 0
  br i1 %31, label %32, label %162

32:                                               ; preds = %24
  %33 = load ptr, ptr %6, align 8, !tbaa !3
  %34 = load ptr, ptr %7, align 8, !tbaa !8
  %35 = load i64, ptr %8, align 8, !tbaa !9
  %36 = load i64, ptr %9, align 8, !tbaa !9
  %37 = call ptr @H5EA__dblock_protect(ptr noundef %33, ptr noundef %34, i64 noundef %35, i64 noundef %36, i32 noundef 0)
  store ptr %37, ptr %10, align 8, !tbaa !11
  %38 = icmp eq ptr null, %37
  br i1 %38, label %39, label %59

39:                                               ; preds = %32
  br label %40

40:                                               ; preds = %39
  br label %41

41:                                               ; preds = %40
  br label %42

42:                                               ; preds = %41
  %43 = load i64, ptr @H5E_EARRAY_g, align 8, !tbaa !9
  %44 = load i64, ptr @H5E_CANTPROTECT_g, align 8, !tbaa !9
  %45 = load i64, ptr %8, align 8, !tbaa !9
  %46 = call i32 (ptr, ptr, i32, i64, i64, ptr, ...) @H5E_printf_stack(ptr noundef @.str, ptr noundef @__func__.H5EA__dblock_delete, i32 noundef 386, i64 noundef %43, i64 noundef %44, ptr noundef @.str.11, i64 noundef %45)
  br label %47

47:                                               ; preds = %42
  br label %48

48:                                               ; preds = %47
  store i8 1, ptr %12, align 1, !tbaa !13
  %49 = load i8, ptr %12, align 1, !tbaa !13, !range !15, !noundef !16
  %50 = trunc i8 %49 to i1
  %51 = zext i1 %50 to i8
  store i8 %51, ptr %12, align 1, !tbaa !13
  br label %52

52:                                               ; preds = %48
  br label %53

53:                                               ; preds = %52
  br label %54

54:                                               ; preds = %53
  store i32 -1, ptr %11, align 4, !tbaa !43
  br label %138

55:                                               ; No predecessors!
  br label %56

56:                                               ; preds = %55
  br label %57

57:                                               ; preds = %56
  br label %58

58:                                               ; preds = %57
  br label %59

59:                                               ; preds = %58, %32
  %60 = load i64, ptr %9, align 8, !tbaa !9
  %61 = load ptr, ptr %6, align 8, !tbaa !3
  %62 = getelementptr inbounds nuw %struct.H5EA_hdr_t, ptr %61, i32 0, i32 16
  %63 = load i64, ptr %62, align 8, !tbaa !30
  %64 = icmp ugt i64 %60, %63
  br i1 %64, label %65, label %137

65:                                               ; preds = %59
  call void @llvm.lifetime.start.p0(i64 8, ptr %13) #5
  %66 = load i64, ptr %9, align 8, !tbaa !9
  %67 = load ptr, ptr %6, align 8, !tbaa !3
  %68 = getelementptr inbounds nuw %struct.H5EA_hdr_t, ptr %67, i32 0, i32 16
  %69 = load i64, ptr %68, align 8, !tbaa !30
  %70 = udiv i64 %66, %69
  store i64 %70, ptr %13, align 8, !tbaa !9
  call void @llvm.lifetime.start.p0(i64 8, ptr %14) #5
  call void @llvm.lifetime.start.p0(i64 8, ptr %15) #5
  call void @llvm.lifetime.start.p0(i64 8, ptr %16) #5
  %71 = load i64, ptr %8, align 8, !tbaa !9
  %72 = load ptr, ptr %10, align 8, !tbaa !11
  %73 = getelementptr inbounds nuw %struct.H5EA_dblock_t, ptr %72, i32 0, i32 3
  %74 = load ptr, ptr %73, align 8, !tbaa !17
  %75 = getelementptr inbounds nuw %struct.H5EA_hdr_t, ptr %74, i32 0, i32 11
  %76 = load i64, ptr %75, align 8, !tbaa !46
  %77 = add i64 10, %76
  %78 = load ptr, ptr %10, align 8, !tbaa !11
  %79 = getelementptr inbounds nuw %struct.H5EA_dblock_t, ptr %78, i32 0, i32 3
  %80 = load ptr, ptr %79, align 8, !tbaa !17
  %81 = getelementptr inbounds nuw %struct.H5EA_hdr_t, ptr %80, i32 0, i32 13
  %82 = load i8, ptr %81, align 8, !tbaa !47
  %83 = zext i8 %82 to i64
  %84 = add i64 %77, %83
  %85 = add i64 %71, %84
  store i64 %85, ptr %14, align 8, !tbaa !9
  %86 = load ptr, ptr %6, align 8, !tbaa !3
  %87 = getelementptr inbounds nuw %struct.H5EA_hdr_t, ptr %86, i32 0, i32 16
  %88 = load i64, ptr %87, align 8, !tbaa !30
  %89 = load ptr, ptr %6, align 8, !tbaa !3
  %90 = getelementptr inbounds nuw %struct.H5EA_hdr_t, ptr %89, i32 0, i32 1
  %91 = getelementptr inbounds nuw %struct.H5EA_create_t, ptr %90, i32 0, i32 1
  %92 = load i8, ptr %91, align 8, !tbaa !48
  %93 = zext i8 %92 to i64
  %94 = mul i64 %88, %93
  %95 = add i64 %94, 4
  store i64 %95, ptr %15, align 8, !tbaa !9
  store i64 0, ptr %16, align 8, !tbaa !9
  br label %96

96:                                               ; preds = %130, %65
  %97 = load i64, ptr %16, align 8, !tbaa !9
  %98 = load i64, ptr %13, align 8, !tbaa !9
  %99 = icmp ult i64 %97, %98
  br i1 %99, label %100, label %133

100:                                              ; preds = %96
  %101 = load ptr, ptr %6, align 8, !tbaa !3
  %102 = getelementptr inbounds nuw %struct.H5EA_hdr_t, ptr %101, i32 0, i32 8
  %103 = load ptr, ptr %102, align 8, !tbaa !51
  %104 = load i64, ptr %14, align 8, !tbaa !9
  %105 = call i32 @H5AC_expunge_entry(ptr noundef %103, ptr noundef @H5AC_EARRAY_DBLK_PAGE, i64 noundef %104, i32 noundef 0)
  %106 = icmp slt i32 %105, 0
  br i1 %106, label %107, label %126

107:                                              ; preds = %100
  br label %108

108:                                              ; preds = %107
  br label %109

109:                                              ; preds = %108
  br label %110

110:                                              ; preds = %109
  %111 = load i64, ptr @H5E_EARRAY_g, align 8, !tbaa !9
  %112 = load i64, ptr @H5E_CANTEXPUNGE_g, align 8, !tbaa !9
  %113 = call i32 (ptr, ptr, i32, i64, i64, ptr, ...) @H5E_printf_stack(ptr noundef @.str, ptr noundef @__func__.H5EA__dblock_delete, i32 noundef 405, i64 noundef %111, i64 noundef %112, ptr noundef @.str.13)
  br label %114

114:                                              ; preds = %110
  br label %115

115:                                              ; preds = %114
  store i8 1, ptr %12, align 1, !tbaa !13
  %116 = load i8, ptr %12, align 1, !tbaa !13, !range !15, !noundef !16
  %117 = trunc i8 %116 to i1
  %118 = zext i1 %117 to i8
  store i8 %118, ptr %12, align 1, !tbaa !13
  br label %119

119:                                              ; preds = %115
  br label %120

120:                                              ; preds = %119
  br label %121

121:                                              ; preds = %120
  store i32 -1, ptr %11, align 4, !tbaa !43
  store i32 10, ptr %17, align 4
  br label %134

122:                                              ; No predecessors!
  br label %123

123:                                              ; preds = %122
  br label %124

124:                                              ; preds = %123
  br label %125

125:                                              ; preds = %124
  br label %126

126:                                              ; preds = %125, %100
  %127 = load i64, ptr %15, align 8, !tbaa !9
  %128 = load i64, ptr %14, align 8, !tbaa !9
  %129 = add i64 %128, %127
  store i64 %129, ptr %14, align 8, !tbaa !9
  br label %130

130:                                              ; preds = %126
  %131 = load i64, ptr %16, align 8, !tbaa !9
  %132 = add i64 %131, 1
  store i64 %132, ptr %16, align 8, !tbaa !9
  br label %96, !llvm.loop !70

133:                                              ; preds = %96
  store i32 0, ptr %17, align 4
  br label %134

134:                                              ; preds = %121, %133
  call void @llvm.lifetime.end.p0(i64 8, ptr %16) #5
  call void @llvm.lifetime.end.p0(i64 8, ptr %15) #5
  call void @llvm.lifetime.end.p0(i64 8, ptr %14) #5
  call void @llvm.lifetime.end.p0(i64 8, ptr %13) #5
  %135 = load i32, ptr %17, align 4
  switch i32 %135, label %164 [
    i32 0, label %136
    i32 10, label %138
  ]

136:                                              ; preds = %134
  br label %137

137:                                              ; preds = %136, %59
  br label %138

138:                                              ; preds = %137, %134, %54
  %139 = load ptr, ptr %10, align 8, !tbaa !11
  %140 = icmp ne ptr %139, null
  br i1 %140, label %141, label %161

141:                                              ; preds = %138
  %142 = load ptr, ptr %10, align 8, !tbaa !11
  %143 = call i32 @H5EA__dblock_unprotect(ptr noundef %142, i32 noundef 259)
  %144 = icmp slt i32 %143, 0
  br i1 %144, label %145, label %161

145:                                              ; preds = %141
  br label %146

146:                                              ; preds = %145
  br label %147

147:                                              ; preds = %146
  br label %148

148:                                              ; preds = %147
  %149 = load i64, ptr @H5E_EARRAY_g, align 8, !tbaa !9
  %150 = load i64, ptr @H5E_CANTUNPROTECT_g, align 8, !tbaa !9
  %151 = call i32 (ptr, ptr, i32, i64, i64, ptr, ...) @H5E_printf_stack(ptr noundef @.str, ptr noundef @__func__.H5EA__dblock_delete, i32 noundef 416, i64 noundef %149, i64 noundef %150, ptr noundef @.str.10)
  br label %152

152:                                              ; preds = %148
  br label %153

153:                                              ; preds = %152
  store i8 1, ptr %12, align 1, !tbaa !13
  %154 = load i8, ptr %12, align 1, !tbaa !13, !range !15, !noundef !16
  %155 = trunc i8 %154 to i1
  %156 = zext i1 %155 to i8
  store i8 %156, ptr %12, align 1, !tbaa !13
  br label %157

157:                                              ; preds = %153
  br label %158

158:                                              ; preds = %157
  store i32 -1, ptr %11, align 4, !tbaa !43
  br label %159

159:                                              ; preds = %158
  br label %160

160:                                              ; preds = %159
  br label %161

161:                                              ; preds = %160, %141, %138
  br label %162

162:                                              ; preds = %161, %24
  %163 = load i32, ptr %11, align 4, !tbaa !43
  store i32 %163, ptr %5, align 4
  store i32 1, ptr %17, align 4
  br label %164

164:                                              ; preds = %162, %134
  call void @llvm.lifetime.end.p0(i64 1, ptr %12) #5
  call void @llvm.lifetime.end.p0(i64 4, ptr %11) #5
  call void @llvm.lifetime.end.p0(i64 8, ptr %10) #5
  %165 = load i32, ptr %5, align 4
  ret i32 %165
}