; Function Attrs: nounwind uwtable
define range(i32 -1, 1) i32 @H5EA__dblock_delete(ptr noundef %0, ptr noundef %1, i64 noundef %2, i64 noundef %3) local_unnamed_addr #0 {
  %5 = load i8, ptr @H5EA_init_g, align 1, !tbaa !3, !range !7, !noundef !8
  %6 = trunc nuw i8 %5 to i1
  %7 = load i8, ptr @H5_libterm_g, align 1, !range !7
  %8 = trunc nuw i8 %7 to i1
  %9 = xor i1 %8, true
  %10 = select i1 %6, i1 true, i1 %9
  br i1 %10, label %11, label %H5EA__dblock_unprotect.exit.thread, !prof !9

11:                                               ; preds = %4
  %12 = tail call ptr @H5EA__dblock_protect(ptr noundef %0, ptr noundef %1, i64 noundef %2, i64 noundef %3, i32 noundef 0)
  %13 = icmp eq ptr %12, null
  br i1 %13, label %.thread, label %17

.thread:                                          ; preds = %11
  %14 = load i64, ptr @H5E_EARRAY_g, align 8, !tbaa !10
  %15 = load i64, ptr @H5E_CANTPROTECT_g, align 8, !tbaa !10
  %16 = tail call i32 (ptr, ptr, i32, i64, i64, ptr, ...) @H5E_printf_stack(ptr noundef nonnull @.str, ptr noundef nonnull @__func__.H5EA__dblock_delete, i32 noundef 386, i64 noundef %14, i64 noundef %15, ptr noundef nonnull @.str.11, i64 noundef %2) #4
  br label %H5EA__dblock_unprotect.exit.thread

17:                                               ; preds = %11
  %18 = getelementptr inbounds nuw i8, ptr %0, i64 448
  %19 = load i64, ptr %18, align 8, !tbaa !27
  %20 = icmp ugt i64 %3, %19
  br i1 %20, label %.lr.ph, label %.thread37

.lr.ph:                                           ; preds = %17
  %21 = udiv i64 %3, %19
  %22 = getelementptr inbounds nuw i8, ptr %0, i64 256
  %23 = load i8, ptr %22, align 8, !tbaa !42
  %24 = zext i8 %23 to i64
  %25 = mul i64 %19, %24
  %26 = add i64 %25, 4
  %27 = add i64 %2, 10
  %28 = getelementptr inbounds nuw i8, ptr %12, i64 264
  %29 = load ptr, ptr %28, align 8, !tbaa !12
  %30 = getelementptr inbounds nuw i8, ptr %29, i64 408
  %31 = load i64, ptr %30, align 8, !tbaa !40
  %32 = add i64 %27, %31
  %33 = getelementptr inbounds nuw i8, ptr %29, i64 424
  %34 = load i8, ptr %33, align 8, !tbaa !41
  %35 = zext i8 %34 to i64
  %36 = add i64 %32, %35
  %37 = getelementptr inbounds nuw i8, ptr %0, i64 384
  br label %38

38:                                               ; preds = %.lr.ph, %46
  %.02842 = phi i64 [ 0, %.lr.ph ], [ %48, %46 ]
  %.03041 = phi i64 [ %36, %.lr.ph ], [ %47, %46 ]
  %39 = load ptr, ptr %37, align 8, !tbaa !45
  %40 = tail call i32 @H5AC_expunge_entry(ptr noundef %39, ptr noundef nonnull @H5AC_EARRAY_DBLK_PAGE, i64 noundef %.03041, i32 noundef 0) #4
  %41 = icmp slt i32 %40, 0
  br i1 %41, label %42, label %46

42:                                               ; preds = %38
  %43 = load i64, ptr @H5E_EARRAY_g, align 8, !tbaa !10
  %44 = load i64, ptr @H5E_CANTEXPUNGE_g, align 8, !tbaa !10
  %45 = tail call i32 (ptr, ptr, i32, i64, i64, ptr, ...) @H5E_printf_stack(ptr noundef nonnull @.str, ptr noundef nonnull @__func__.H5EA__dblock_delete, i32 noundef 405, i64 noundef %43, i64 noundef %44, ptr noundef nonnull @.str.13) #4
  br label %.thread37

46:                                               ; preds = %38
  %47 = add i64 %26, %.03041
  %48 = add nuw i64 %.02842, 1
  %49 = icmp ult i64 %48, %21
  br i1 %49, label %38, label %.thread37, !llvm.loop !64

.thread37:                                        ; preds = %46, %42, %17
  %.139 = phi i32 [ 0, %17 ], [ -1, %42 ], [ 0, %46 ]
  %50 = load i8, ptr @H5EA_init_g, align 1, !tbaa !3, !range !7, !noundef !8
  %51 = trunc nuw i8 %50 to i1
  %52 = load i8, ptr @H5_libterm_g, align 1, !range !7
  %53 = trunc nuw i8 %52 to i1
  %54 = xor i1 %53, true
  %55 = select i1 %51, i1 true, i1 %54
  br i1 %55, label %56, label %H5EA__dblock_unprotect.exit.thread, !prof !9

56:                                               ; preds = %.thread37
  %57 = getelementptr inbounds nuw i8, ptr %12, i64 264
  %58 = load ptr, ptr %57, align 8, !tbaa !12
  %59 = getelementptr inbounds nuw i8, ptr %58, i64 384
  %60 = load ptr, ptr %59, align 8, !tbaa !45
  %61 = getelementptr inbounds nuw i8, ptr %12, i64 272
  %62 = load i64, ptr %61, align 8, !tbaa !46
  %63 = tail call i32 @H5AC_unprotect(ptr noundef %60, ptr noundef nonnull @H5AC_EARRAY_DBLOCK, i64 noundef %62, ptr noundef nonnull %12, i32 noundef 259) #4
  %64 = icmp slt i32 %63, 0
  br i1 %64, label %65, label %H5EA__dblock_unprotect.exit.thread

65:                                               ; preds = %56
  %66 = load i64, ptr @H5E_EARRAY_g, align 8, !tbaa !10
  %67 = load i64, ptr @H5E_CANTUNPROTECT_g, align 8, !tbaa !10
  %68 = load i64, ptr %61, align 8, !tbaa !46
  %69 = tail call i32 (ptr, ptr, i32, i64, i64, ptr, ...) @H5E_printf_stack(ptr noundef nonnull @.str, ptr noundef nonnull @__func__.H5EA__dblock_unprotect, i32 noundef 352, i64 noundef %66, i64 noundef %67, ptr noundef nonnull @.str.12, i64 noundef %68) #4
  %70 = load i64, ptr @H5E_EARRAY_g, align 8, !tbaa !10
  %71 = load i64, ptr @H5E_CANTUNPROTECT_g, align 8, !tbaa !10
  %72 = tail call i32 (ptr, ptr, i32, i64, i64, ptr, ...) @H5E_printf_stack(ptr noundef nonnull @.str, ptr noundef nonnull @__func__.H5EA__dblock_delete, i32 noundef 416, i64 noundef %70, i64 noundef %71, ptr noundef nonnull @.str.10) #4
  br label %H5EA__dblock_unprotect.exit.thread

H5EA__dblock_unprotect.exit.thread:               ; preds = %.thread37, %56, %.thread, %4, %65
  %.029 = phi i32 [ -1, %65 ], [ 0, %4 ], [ -1, %.thread ], [ %.139, %56 ], [ %.139, %.thread37 ]
  ret i32 %.029
}